; Function Attrs: mustprogress nounwind uwtable
define void @_ZN8proxygen12WorkerThread12stopWhenIdleEv(ptr noundef nonnull align 8 dereferenceable(80) %this) local_unnamed_addr #3 align 2 personality ptr @__gxx_personality_v0 {
entry:
  %agg.tmp = alloca %"class.folly::Function", align 16
  %eventBase_ = getelementptr inbounds i8, ptr %this, i64 72
  %0 = load ptr, ptr %eventBase_, align 8
  %call_.i = getelementptr inbounds i8, ptr %agg.tmp, i64 48
  %exec_.i = getelementptr inbounds i8, ptr %agg.tmp, i64 56
  store ptr %this, ptr %agg.tmp, align 16
  store ptr @"_ZN5folly6detail8function14FunctionTraitsIFvvEE9callSmallIZN8proxygen12WorkerThread12stopWhenIdleEvE3$_0EEvRNS1_4DataE", ptr %call_.i, align 16
  store ptr @_ZN5folly6detail8function20DispatchSmallTrivial5exec_ILm16EEEmNS1_2OpEPNS1_4DataES6_, ptr %exec_.i, align 8
  call void @_ZN5folly9EventBase20runInEventBaseThreadENS_8FunctionIFvvEEE(ptr noundef nonnull align 16 dereferenceable(568) %0, ptr noundef nonnull %agg.tmp) #16
  %1 = load ptr, ptr %exec_.i, align 8
  %tobool.not.i.i = icmp eq ptr %1, null
  br i1 %tobool.not.i.i, label %_ZN5folly8FunctionIFvvEED2Ev.exit, label %if.end.i.i

if.end.i.i:                                       ; preds = %entry
  %call.i.i = call noundef i64 %1(i32 noundef 1, ptr noundef nonnull %agg.tmp, ptr noundef null) #16
  br label %_ZN5folly8FunctionIFvvEED2Ev.exit

_ZN5folly8FunctionIFvvEED2Ev.exit:                ; preds = %entry, %if.end.i.i
  ret void
}